Certificate:
    Data:
        Version: 1 (0x0)
        Serial Number: 4103 (0x1007)
    Signature Algorithm: sha256WithRSAEncryption
        Issuer: O=Volunteer Computing, CN=Volunteer Computing Signing Certification Authority
        Validity
            Not Before: Jun 15 11:14:53 2018 GMT
            Not After : Jun 25 11:14:53 2019 GMT
        Subject: O=Volunteer Computing, O=CERN, CN=MrBoincHost
        Subject Public Key Info:
            Public Key Algorithm: rsaEncryption
                Public-Key: (4096 bit)
                Modulus:
                    00:c4:55:e0:e2:0c:d1:04:ae:bc:b6:e1:9a:d5:bc:
                    83:88:bf:ef:e5:17:e5:ff:4f:f2:1d:db:57:81:65:
                    c5:2e:6a:8e:e9:80:f7:4f:97:ee:75:72:3b:00:79:
                    5c:be:22:66:11:d5:a5:45:2a:65:98:14:be:cc:0b:
                    20:ad:c1:dc:5d:75:99:07:6f:ca:00:bf:5f:4c:17:
                    46:b6:57:8f:3a:83:31:db:8b:da:d7:ec:e0:03:71:
                    6e:ff:6e:31:29:39:16:b9:81:cc:81:75:1b:22:0e:
                    f3:de:cb:f1:fe:37:52:08:0e:09:5b:4f:78:61:79:
                    8c:39:ad:dc:ed:e8:83:8b:83:e2:f0:ce:53:e1:4b:
                    5c:5f:93:2f:a9:8a:bf:93:6f:5e:2c:36:65:33:85:
                    a9:bd:85:a5:eb:40:1d:17:56:79:2e:33:b4:51:7e:
                    99:f1:af:c3:a4:02:46:09:46:43:d5:b9:8f:5c:f9:
                    92:b4:bf:19:3a:c4:6b:06:80:d4:61:f0:11:4c:b9:
                    77:8d:6d:f9:97:69:9a:a4:f9:02:ca:53:08:33:03:
                    57:ec:0a:ab:a7:1a:e0:6a:46:1e:46:2e:76:7b:b5:
                    c9:3d:84:fa:38:3a:67:0f:d5:9d:df:71:81:60:56:
                    c2:f9:ec:61:69:7c:03:e5:8e:4a:3a:43:67:ef:aa:
                    66:8a:ed:4e:d5:bf:28:14:35:3f:64:f6:b6:c9:b7:
                    47:8f:35:bb:ba:8e:a6:e8:0b:b4:b3:5a:08:f2:e2:
                    31:54:9a:0c:45:aa:c5:08:a3:25:aa:0c:2c:a3:3b:
                    d5:8a:09:5a:c9:fd:98:49:80:b3:c5:07:f0:41:64:
                    1b:6d:72:b3:d1:4f:5f:a5:6c:03:6f:54:54:89:4e:
                    68:4b:36:c3:45:bd:1b:a2:24:9b:84:79:23:8e:23:
                    68:07:8c:35:be:e7:63:7c:dd:4f:8b:f1:1d:6d:f1:
                    df:f3:79:9c:b1:a3:34:4f:59:0b:33:2b:99:cf:bd:
                    e5:6f:e1:fd:34:13:a8:d6:65:43:ea:4a:bc:28:91:
                    2e:e9:c2:d4:9f:be:0e:a6:be:81:ec:e5:18:95:d2:
                    1d:3e:ac:bb:fe:e5:57:4c:20:7d:8a:c7:41:58:d1:
                    38:1b:cf:12:8d:2a:c7:be:18:9f:e6:8d:85:48:5e:
                    66:88:fa:18:b4:36:43:57:8d:dc:1f:0f:68:c1:d5:
                    c8:72:af:f7:e5:42:f0:c5:68:52:a6:61:5b:b3:7c:
                    11:fb:ee:2c:eb:a2:94:48:a3:11:25:dc:9a:d8:d6:
                    41:62:92:93:aa:98:26:1c:f5:76:f7:1a:ad:c8:5c:
                    cd:f7:e9:f8:60:12:44:a3:b6:7c:3e:2d:d8:da:c6:
                    6f:df:d5
                Exponent: 65537 (0x10001)
    Signature Algorithm: sha256WithRSAEncryption
         73:b4:6f:f5:c6:02:fd:0d:7c:2c:67:f4:cd:29:36:d4:c8:a1:
         d7:24:d3:cb:0b:18:a3:e8:a4:4f:f4:28:63:6f:db:e2:5a:a1:
         37:11:e8:d1:88:7f:7a:4d:1b:da:64:a8:48:41:e0:ec:37:c4:
         c8:9e:dd:f7:3f:24:78:f8:aa:3f:46:f0:a0:57:f4:69:da:95:
         e3:16:1d:81:ec:9f:3f:fc:29:b1:59:40:04:45:af:81:ef:b5:
         cb:df:9b:7d:2e:8e:c3:c9:44:73:c2:b3:a2:81:2c:eb:36:c3:
         e2:f8:42:f4:91:56:93:3c:10:1b:db:c5:c8:f1:d0:21:12:67:
         8d:25:17:a0:b7:20:f0:5f:b7:22:fd:54:13:2d:c2:44:d0:27:
         bc:9e:2b:74:60:20:68:f2:20:ff:17:21:9e:61:15:de:f4:ca:
         80:ee:01:b7:54:55:c0:61:9a:4a:36:80:8c:76:90:4a:67:76:
         eb:42:d4:3a:47:04:b2:81:89:1e:9a:6a:ce:23:5d:99:20:73:
         9d:02:a7:5c:54:50:a0:34:45:3f:a9:7d:73:e4:68:a0:de:2b:
         76:60:f7:8e:94:66:7b:c1:65:b4:ec:a6:04:38:f6:5d:66:68:
         6c:fd:42:b9:2c:9a:a1:5b:c5:51:db:42:ea:24:df:bc:aa:f2:
         5b:7e:b2:62:23:71:9b:31:7d:4a:db:18:60:a5:d1:f9:76:03:
         5b:52:d2:97:ce:a4:5d:e9:5c:79:08:0f:f2:ef:73:a4:1f:8c:
         ed:2e:9f:92:7e:6d:1c:5c:0c:04:bf:3a:46:a0:11:5b:7c:88:
         45:d9:26:8a:57:70:b4:b4:45:47:5d:2e:55:20:56:d3:d7:4f:
         d6:7b:54:de:35:4b:73:3c:44:70:b5:28:8b:14:64:01:34:cf:
         3c:78:62:76:d7:c5:62:ca:75:10:bf:0b:ca:f3:63:ef:7b:9b:
         c8:55:6e:7b:79:5b:5e:b1:47:b8:0a:c3:b8:87:46:2c:83:0e:
         5f:5f:97:02:7f:76:9e:b0:5a:b7:0b:0b:d0:c4:36:cd:71:0a:
         9f:67:f2:6d:da:e1:37:f6:35:81:dc:54:ca:56:62:9a:69:32:
         37:b5:b3:5b:41:a3:e2:f7:54:ca:e1:99:a7:99:10:9e:81:97:
         46:3c:26:bd:cf:85:c5:b8:a9:95:5a:17:05:db:d8:7e:11:7f:
         b9:c4:62:48:86:e0:c2:06:cf:e5:c2:df:1f:96:4a:d9:97:4b:
         b3:38:45:b6:83:ac:0c:18:29:1c:05:ce:ee:82:87:be:73:86:
         e5:f0:ef:62:8b:4a:62:77:e1:e6:79:a8:2e:8d:e5:c1:40:39:
         6d:58:72:b1:8b:30:df:98
-----BEGIN CERTIFICATE-----
MIIFFDCCAvwCAhAHMA0GCSqGSIb3DQEBCwUAMFwxHDAaBgNVBAoME1ZvbHVudGVl
ciBDb21wdXRpbmcxPDA6BgNVBAMMM1ZvbHVudGVlciBDb21wdXRpbmcgU2lnbmlu
ZyBDZXJ0aWZpY2F0aW9uIEF1dGhvcml0eTAeFw0xODA2MTUxMTE0NTNaFw0xOTA2
MjUxMTE0NTNaMEMxHDAaBgNVBAoME1ZvbHVudGVlciBDb21wdXRpbmcxDTALBgNV
BAoMBENFUk4xFDASBgNVBAMMC01yQm9pbmNIb3N0MIICIjANBgkqhkiG9w0BAQEF
AAOCAg8AMIICCgKCAgEAxFXg4gzRBK68tuGa1byDiL/v5Rfl/0/yHdtXgWXFLmqO
6YD3T5fudXI7AHlcviJmEdWlRSplmBS+zAsgrcHcXXWZB2/KAL9fTBdGtlePOoMx
24va1+zgA3Fu/24xKTkWuYHMgXUbIg7z3svx/jdSCA4JW094YXmMOa3c7eiDi4Pi
8M5T4UtcX5MvqYq/k29eLDZlM4WpvYWl60AdF1Z5LjO0UX6Z8a/DpAJGCUZD1bmP
XPmStL8ZOsRrBoDUYfARTLl3jW35l2mapPkCylMIMwNX7AqrpxrgakYeRi52e7XJ
PYT6ODpnD9Wd33GBYFbC+exhaXwD5Y5KOkNn76pmiu1O1b8oFDU/ZPa2ybdHjzW7
uo6m6Au0s1oI8uIxVJoMRarFCKMlqgwsozvViglayf2YSYCzxQfwQWQbbXKz0U9f
pWwDb1RUiU5oSzbDRb0boiSbhHkjjiNoB4w1vudjfN1Pi/EdbfHf83mcsaM0T1kL
MyuZz73lb+H9NBOo1mVD6kq8KJEu6cLUn74Opr6B7OUYldIdPqy7/uVXTCB9isdB
WNE4G88SjSrHvhif5o2FSF5miPoYtDZDV43cHw9owdXIcq/35ULwxWhSpmFbs3wR
++4s66KUSKMRJdya2NZBYpKTqpgmHPV29xqtyFzN9+n4YBJEo7Z8Pi3Y2sZv39UC
AwEAATANBgkqhkiG9w0BAQsFAAOCAgEAc7Rv9cYC/Q18LGf0zSk21Mih1yTTywsY
o+ikT/QoY2/b4lqhNxHo0Yh/ek0b2mSoSEHg7DfEyJ7d9z8kePiqP0bwoFf0adqV
4xYdgeyfP/wpsVlABEWvge+1y9+bfS6Ow8lEc8KzooEs6zbD4vhC9JFWkzwQG9vF
yPHQIRJnjSUXoLcg8F+3Iv1UEy3CRNAnvJ4rdGAgaPIg/xchnmEV3vTKgO4Bt1RV
wGGaSjaAjHaQSmd260LUOkcEsoGJHppqziNdmSBznQKnXFRQoDRFP6l9c+RooN4r
dmD3jpRme8FltOymBDj2XWZobP1CuSyaoVvFUdtC6iTfvKryW36yYiNxmzF9StsY
YKXR+XYDW1LSl86kXelceQgP8u9zpB+M7S6fkn5tHFwMBL86RqARW3yIRdkmildw
tLRFR10uVSBW09dP1ntU3jVLczxEcLUoixRkATTPPHhidtfFYsp1EL8LyvNj73ub
yFVue3lbXrFHuArDuIdGLIMOX1+XAn92nrBatwsL0MQ2zXEKn2fybdrhN/Y1gdxU
ylZimmkyN7WzW0Gj4vdUyuGZp5kQnoGXRjwmvc+FxbiplVoXBdvYfhF/ucRiSIbg
wgbP5cLfH5ZK2ZdLszhFtoOsDBgpHAXO7oKHvnOG5fDvYotKYnfh5nmoLo3lwUA5
bVhysYsw35g=
-----END CERTIFICATE-----
