Certificate:
    Data:
        Version: 3 (0x2)
        Serial Number: 4104 (0x1008)
    Signature Algorithm: sha256WithRSAEncryption
        Issuer: O=Volunteer Computing, CN=Volunteer Computing Signing Certification Authority
        Validity
            Not Before: Jun 15 11:23:52 2018 GMT
            Not After : Jun 25 11:23:52 2019 GMT
        Subject: O=Volunteer Computing, O=CERN, CN=MrBoincHost
        Subject Public Key Info:
            Public Key Algorithm: rsaEncryption
                Public-Key: (4096 bit)
                Modulus:
                    00:c4:55:e0:e2:0c:d1:04:ae:bc:b6:e1:9a:d5:bc:
                    83:88:bf:ef:e5:17:e5:ff:4f:f2:1d:db:57:81:65:
                    c5:2e:6a:8e:e9:80:f7:4f:97:ee:75:72:3b:00:79:
                    5c:be:22:66:11:d5:a5:45:2a:65:98:14:be:cc:0b:
                    20:ad:c1:dc:5d:75:99:07:6f:ca:00:bf:5f:4c:17:
                    46:b6:57:8f:3a:83:31:db:8b:da:d7:ec:e0:03:71:
                    6e:ff:6e:31:29:39:16:b9:81:cc:81:75:1b:22:0e:
                    f3:de:cb:f1:fe:37:52:08:0e:09:5b:4f:78:61:79:
                    8c:39:ad:dc:ed:e8:83:8b:83:e2:f0:ce:53:e1:4b:
                    5c:5f:93:2f:a9:8a:bf:93:6f:5e:2c:36:65:33:85:
                    a9:bd:85:a5:eb:40:1d:17:56:79:2e:33:b4:51:7e:
                    99:f1:af:c3:a4:02:46:09:46:43:d5:b9:8f:5c:f9:
                    92:b4:bf:19:3a:c4:6b:06:80:d4:61:f0:11:4c:b9:
                    77:8d:6d:f9:97:69:9a:a4:f9:02:ca:53:08:33:03:
                    57:ec:0a:ab:a7:1a:e0:6a:46:1e:46:2e:76:7b:b5:
                    c9:3d:84:fa:38:3a:67:0f:d5:9d:df:71:81:60:56:
                    c2:f9:ec:61:69:7c:03:e5:8e:4a:3a:43:67:ef:aa:
                    66:8a:ed:4e:d5:bf:28:14:35:3f:64:f6:b6:c9:b7:
                    47:8f:35:bb:ba:8e:a6:e8:0b:b4:b3:5a:08:f2:e2:
                    31:54:9a:0c:45:aa:c5:08:a3:25:aa:0c:2c:a3:3b:
                    d5:8a:09:5a:c9:fd:98:49:80:b3:c5:07:f0:41:64:
                    1b:6d:72:b3:d1:4f:5f:a5:6c:03:6f:54:54:89:4e:
                    68:4b:36:c3:45:bd:1b:a2:24:9b:84:79:23:8e:23:
                    68:07:8c:35:be:e7:63:7c:dd:4f:8b:f1:1d:6d:f1:
                    df:f3:79:9c:b1:a3:34:4f:59:0b:33:2b:99:cf:bd:
                    e5:6f:e1:fd:34:13:a8:d6:65:43:ea:4a:bc:28:91:
                    2e:e9:c2:d4:9f:be:0e:a6:be:81:ec:e5:18:95:d2:
                    1d:3e:ac:bb:fe:e5:57:4c:20:7d:8a:c7:41:58:d1:
                    38:1b:cf:12:8d:2a:c7:be:18:9f:e6:8d:85:48:5e:
                    66:88:fa:18:b4:36:43:57:8d:dc:1f:0f:68:c1:d5:
                    c8:72:af:f7:e5:42:f0:c5:68:52:a6:61:5b:b3:7c:
                    11:fb:ee:2c:eb:a2:94:48:a3:11:25:dc:9a:d8:d6:
                    41:62:92:93:aa:98:26:1c:f5:76:f7:1a:ad:c8:5c:
                    cd:f7:e9:f8:60:12:44:a3:b6:7c:3e:2d:d8:da:c6:
                    6f:df:d5
                Exponent: 65537 (0x10001)
        X509v3 extensions:
            X509v3 Basic Constraints: 
                CA:FALSE
            Netscape Comment: 
                OpenSSL Generated Server Certificate
            X509v3 Subject Key Identifier: 
                31:7A:C5:1F:36:ED:D3:A9:A4:B8:3E:11:B3:E2:31:D7:48:3C:26:AB
            X509v3 Authority Key Identifier: 
                keyid:DB:7B:18:9D:FD:A1:CB:DE:2F:C2:E7:15:5B:77:08:4E:C8:EF:C6:DB
                DirName:/O=Volunteer Computing/CN=Volunteer Computing Signing Certification Authority
                serial:BF:5D:77:3B:2F:A4:33:E2

            X509v3 Key Usage: critical
                Digital Signature, Key Encipherment
            X509v3 Extended Key Usage: 
                TLS Web Server Authentication, TLS Web Client Authentication
    Signature Algorithm: sha256WithRSAEncryption
         2d:30:8e:ca:06:be:4d:5c:50:73:cc:61:e4:2f:82:8c:8d:b8:
         7f:1d:cf:a6:98:fb:c2:35:e4:eb:b5:a4:6f:46:84:45:5c:bf:
         74:30:32:8a:d5:ec:96:23:60:d7:e9:33:cf:bb:d6:0e:ab:7c:
         5a:43:4f:83:76:33:aa:60:7e:d0:c7:8c:c4:11:89:50:9b:db:
         80:aa:fc:8d:d2:9d:91:b0:a3:ed:9a:91:be:a5:fa:d3:18:97:
         f2:89:c0:a3:c1:f8:0d:4b:91:17:58:23:69:20:cc:a0:cc:be:
         2f:fe:11:7a:e5:3b:52:fc:63:9d:08:ce:a4:93:2b:66:69:fa:
         f4:84:c2:40:1d:94:1e:45:54:a0:7b:a1:58:65:f0:3e:ec:c6:
         f7:ed:d6:9e:02:b2:ce:6e:16:cf:12:b2:00:e7:0f:40:20:c7:
         cf:02:0f:94:3f:c1:97:34:e8:07:d5:89:cc:d2:c6:8e:2b:b7:
         07:e5:6e:3a:9b:4d:28:81:33:d6:1a:3f:7f:18:2b:a2:9c:d5:
         19:bb:25:ba:dd:dd:5c:3d:0f:83:cb:84:b5:4a:99:e0:3c:5b:
         cf:3e:f5:1f:1a:99:17:6e:fe:6c:fb:18:a3:2a:38:91:7f:bb:
         2d:7a:02:f6:2e:94:f5:50:33:0c:ba:99:37:69:86:d5:fd:53:
         78:f0:05:c9:88:03:99:f8:a3:0a:31:13:44:2b:e2:b3:ad:83:
         ce:42:49:9d:e3:cd:96:2c:fe:73:3e:91:26:bf:35:4c:8a:6b:
         6d:11:c2:21:b1:5f:3e:73:77:23:f0:d8:70:d0:83:88:8e:b0:
         82:f0:ec:d7:38:9f:ac:41:7f:ee:b5:bd:78:a6:c4:1c:59:b4:
         7f:cd:7f:a8:4a:52:86:e1:c6:5c:19:5e:5a:53:2f:a2:f1:c1:
         28:25:00:cb:1c:70:92:45:33:66:2f:cd:04:21:f4:c4:0c:1b:
         52:be:d0:66:17:3f:7e:23:70:e0:bb:92:ed:2a:23:3a:1f:dc:
         cc:bd:1c:01:31:57:01:f2:27:d7:43:d4:17:a0:4e:3a:84:cf:
         50:c4:07:2a:70:61:c1:4e:61:42:33:8e:05:c7:76:c4:a9:45:
         ec:cb:a4:65:15:34:9c:f9:d0:be:89:e6:a2:3f:d7:e3:77:4d:
         40:a5:7c:28:be:55:f3:85:f0:78:9c:79:17:9c:29:39:1f:9b:
         c2:12:40:98:3e:8d:9f:f1:11:eb:ee:93:33:57:82:cf:ad:e2:
         8c:65:b3:23:07:fb:17:91:b6:8d:93:4f:86:e6:e0:0c:32:fe:
         f5:42:1e:ee:c1:35:43:f7:61:7f:25:13:63:a0:b1:bf:82:2f:
         13:64:d4:26:4b:69:80:6f
-----BEGIN CERTIFICATE-----
MIIGQDCCBCigAwIBAgICEAgwDQYJKoZIhvcNAQELBQAwXDEcMBoGA1UECgwTVm9s
dW50ZWVyIENvbXB1dGluZzE8MDoGA1UEAwwzVm9sdW50ZWVyIENvbXB1dGluZyBT
aWduaW5nIENlcnRpZmljYXRpb24gQXV0aG9yaXR5MB4XDTE4MDYxNTExMjM1MloX
DTE5MDYyNTExMjM1MlowQzEcMBoGA1UECgwTVm9sdW50ZWVyIENvbXB1dGluZzEN
MAsGA1UECgwEQ0VSTjEUMBIGA1UEAwwLTXJCb2luY0hvc3QwggIiMA0GCSqGSIb3
DQEBAQUAA4ICDwAwggIKAoICAQDEVeDiDNEErry24ZrVvIOIv+/lF+X/T/Id21eB
ZcUuao7pgPdPl+51cjsAeVy+ImYR1aVFKmWYFL7MCyCtwdxddZkHb8oAv19MF0a2
V486gzHbi9rX7OADcW7/bjEpORa5gcyBdRsiDvPey/H+N1IIDglbT3hheYw5rdzt
6IOLg+LwzlPhS1xfky+pir+Tb14sNmUzham9haXrQB0XVnkuM7RRfpnxr8OkAkYJ
RkPVuY9c+ZK0vxk6xGsGgNRh8BFMuXeNbfmXaZqk+QLKUwgzA1fsCqunGuBqRh5G
LnZ7tck9hPo4OmcP1Z3fcYFgVsL57GFpfAPljko6Q2fvqmaK7U7VvygUNT9k9rbJ
t0ePNbu6jqboC7SzWgjy4jFUmgxFqsUIoyWqDCyjO9WKCVrJ/ZhJgLPFB/BBZBtt
crPRT1+lbANvVFSJTmhLNsNFvRuiJJuEeSOOI2gHjDW+52N83U+L8R1t8d/zeZyx
ozRPWQszK5nPveVv4f00E6jWZUPqSrwokS7pwtSfvg6mvoHs5RiV0h0+rLv+5VdM
IH2Kx0FY0TgbzxKNKse+GJ/mjYVIXmaI+hi0NkNXjdwfD2jB1chyr/flQvDFaFKm
YVuzfBH77izropRIoxEl3JrY1kFikpOqmCYc9Xb3Gq3IXM336fhgEkSjtnw+Ldja
xm/f1QIDAQABo4IBIzCCAR8wCQYDVR0TBAIwADAzBglghkgBhvhCAQ0EJhYkT3Bl
blNTTCBHZW5lcmF0ZWQgU2VydmVyIENlcnRpZmljYXRlMB0GA1UdDgQWBBQxesUf
Nu3TqaS4PhGz4jHXSDwmqzCBjgYDVR0jBIGGMIGDgBTbexid/aHL3i/C5xVbdwhO
yO/G26FgpF4wXDEcMBoGA1UECgwTVm9sdW50ZWVyIENvbXB1dGluZzE8MDoGA1UE
AwwzVm9sdW50ZWVyIENvbXB1dGluZyBTaWduaW5nIENlcnRpZmljYXRpb24gQXV0
aG9yaXR5ggkAv113Oy+kM+IwDgYDVR0PAQH/BAQDAgWgMB0GA1UdJQQWMBQGCCsG
AQUFBwMBBggrBgEFBQcDAjANBgkqhkiG9w0BAQsFAAOCAgEALTCOyga+TVxQc8xh
5C+CjI24fx3Pppj7wjXk67Wkb0aERVy/dDAyitXsliNg1+kzz7vWDqt8WkNPg3Yz
qmB+0MeMxBGJUJvbgKr8jdKdkbCj7ZqRvqX60xiX8onAo8H4DUuRF1gjaSDMoMy+
L/4ReuU7UvxjnQjOpJMrZmn69ITCQB2UHkVUoHuhWGXwPuzG9+3WngKyzm4WzxKy
AOcPQCDHzwIPlD/BlzToB9WJzNLGjiu3B+VuOptNKIEz1ho/fxgropzVGbslut3d
XD0Pg8uEtUqZ4Dxbzz71HxqZF27+bPsYoyo4kX+7LXoC9i6U9VAzDLqZN2mG1f1T
ePAFyYgDmfijCjETRCvis62DzkJJnePNliz+cz6RJr81TIprbRHCIbFfPnN3I/DY
cNCDiI6wgvDs1zifrEF/7rW9eKbEHFm0f81/qEpShuHGXBleWlMvovHBKCUAyxxw
kkUzZi/NBCH0xAwbUr7QZhc/fiNw4LuS7SojOh/czL0cATFXAfIn10PUF6BOOoTP
UMQHKnBhwU5hQjOOBcd2xKlF7MukZRU0nPnQvonmoj/X43dNQKV8KL5V84XweJx5
F5wpOR+bwhJAmD6Nn/ER6+6TM1eCz63ijGWzIwf7F5G2jZNPhubgDDL+9UIe7sE1
Q/dhfyUTY6Cxv4IvE2TUJktpgG8=
-----END CERTIFICATE-----
