Certificate:
    Data:
        Version: 3 (0x2)
        Serial Number: 4105 (0x1009)
    Signature Algorithm: sha256WithRSAEncryption
        Issuer: O=Volunteer Computing, CN=Volunteer Computing Signing Certification Authority
        Validity
            Not Before: Jun 15 11:58:15 2018 GMT
            Not After : Jun 25 11:58:15 2019 GMT
        Subject: O=Volunteer Computing, O=CERN, CN=MrBoincHost
        Subject Public Key Info:
            Public Key Algorithm: rsaEncryption
                Public-Key: (4096 bit)
                Modulus:
                    00:c4:55:e0:e2:0c:d1:04:ae:bc:b6:e1:9a:d5:bc:
                    83:88:bf:ef:e5:17:e5:ff:4f:f2:1d:db:57:81:65:
                    c5:2e:6a:8e:e9:80:f7:4f:97:ee:75:72:3b:00:79:
                    5c:be:22:66:11:d5:a5:45:2a:65:98:14:be:cc:0b:
                    20:ad:c1:dc:5d:75:99:07:6f:ca:00:bf:5f:4c:17:
                    46:b6:57:8f:3a:83:31:db:8b:da:d7:ec:e0:03:71:
                    6e:ff:6e:31:29:39:16:b9:81:cc:81:75:1b:22:0e:
                    f3:de:cb:f1:fe:37:52:08:0e:09:5b:4f:78:61:79:
                    8c:39:ad:dc:ed:e8:83:8b:83:e2:f0:ce:53:e1:4b:
                    5c:5f:93:2f:a9:8a:bf:93:6f:5e:2c:36:65:33:85:
                    a9:bd:85:a5:eb:40:1d:17:56:79:2e:33:b4:51:7e:
                    99:f1:af:c3:a4:02:46:09:46:43:d5:b9:8f:5c:f9:
                    92:b4:bf:19:3a:c4:6b:06:80:d4:61:f0:11:4c:b9:
                    77:8d:6d:f9:97:69:9a:a4:f9:02:ca:53:08:33:03:
                    57:ec:0a:ab:a7:1a:e0:6a:46:1e:46:2e:76:7b:b5:
                    c9:3d:84:fa:38:3a:67:0f:d5:9d:df:71:81:60:56:
                    c2:f9:ec:61:69:7c:03:e5:8e:4a:3a:43:67:ef:aa:
                    66:8a:ed:4e:d5:bf:28:14:35:3f:64:f6:b6:c9:b7:
                    47:8f:35:bb:ba:8e:a6:e8:0b:b4:b3:5a:08:f2:e2:
                    31:54:9a:0c:45:aa:c5:08:a3:25:aa:0c:2c:a3:3b:
                    d5:8a:09:5a:c9:fd:98:49:80:b3:c5:07:f0:41:64:
                    1b:6d:72:b3:d1:4f:5f:a5:6c:03:6f:54:54:89:4e:
                    68:4b:36:c3:45:bd:1b:a2:24:9b:84:79:23:8e:23:
                    68:07:8c:35:be:e7:63:7c:dd:4f:8b:f1:1d:6d:f1:
                    df:f3:79:9c:b1:a3:34:4f:59:0b:33:2b:99:cf:bd:
                    e5:6f:e1:fd:34:13:a8:d6:65:43:ea:4a:bc:28:91:
                    2e:e9:c2:d4:9f:be:0e:a6:be:81:ec:e5:18:95:d2:
                    1d:3e:ac:bb:fe:e5:57:4c:20:7d:8a:c7:41:58:d1:
                    38:1b:cf:12:8d:2a:c7:be:18:9f:e6:8d:85:48:5e:
                    66:88:fa:18:b4:36:43:57:8d:dc:1f:0f:68:c1:d5:
                    c8:72:af:f7:e5:42:f0:c5:68:52:a6:61:5b:b3:7c:
                    11:fb:ee:2c:eb:a2:94:48:a3:11:25:dc:9a:d8:d6:
                    41:62:92:93:aa:98:26:1c:f5:76:f7:1a:ad:c8:5c:
                    cd:f7:e9:f8:60:12:44:a3:b6:7c:3e:2d:d8:da:c6:
                    6f:df:d5
                Exponent: 65537 (0x10001)
        X509v3 extensions:
            X509v3 Basic Constraints: 
                CA:FALSE
            X509v3 Key Usage: critical
                Digital Signature, Key Encipherment
            X509v3 Extended Key Usage: 
                TLS Web Server Authentication, TLS Web Client Authentication
            X509v3 Subject Key Identifier: 
                31:7A:C5:1F:36:ED:D3:A9:A4:B8:3E:11:B3:E2:31:D7:48:3C:26:AB
            X509v3 Subject Alternative Name: 
                DNS:localhost
    Signature Algorithm: sha256WithRSAEncryption
         30:7c:8f:0c:4b:a7:f6:3f:3c:c1:5b:6c:bf:4e:73:c7:fd:1f:
         7e:cc:d6:36:43:6e:79:23:83:da:7d:1d:31:f8:7e:d9:c9:d2:
         2d:a8:d4:83:15:8c:c0:d3:a2:0b:3c:4e:9e:9d:ff:d4:52:30:
         53:a7:8f:a8:cf:e0:5e:3d:71:f1:1e:e3:35:a8:1f:ff:43:ee:
         92:91:aa:6b:1c:0b:95:18:74:5b:d6:01:b3:a6:71:90:42:94:
         a0:b8:71:44:95:2e:87:eb:95:9a:cd:24:55:e3:4b:a7:d9:40:
         35:dc:51:f0:1d:71:0e:a4:4c:2c:70:be:67:8a:37:b5:ce:36:
         4b:08:30:8e:70:95:d3:a4:0e:77:eb:d3:c0:d8:d8:93:99:b5:
         b9:64:89:c8:7d:41:30:e7:1e:ec:45:fa:f8:bd:ee:7f:62:4b:
         f0:6f:24:60:16:10:a0:10:60:73:81:ef:bc:58:21:4b:fd:3d:
         ad:60:df:c3:71:bb:8d:22:b5:a8:3e:04:3a:a2:e6:c4:e1:a4:
         95:6e:b6:26:14:bc:9d:f6:eb:be:09:4d:08:27:62:48:6e:2f:
         8f:5d:e5:5e:62:a9:88:37:5d:df:7f:f4:5f:e8:e2:8f:75:ed:
         17:d2:5f:83:a7:17:34:81:69:7a:d4:ea:fc:9d:16:e7:b4:4f:
         37:3e:69:b5:fb:3e:64:51:52:38:ff:dd:d6:17:2d:9c:63:69:
         13:41:78:4a:c9:bc:66:83:8e:79:e6:2a:3d:d7:fe:89:9a:4a:
         8e:72:c8:45:bb:a9:2a:30:47:a2:31:ff:3f:8b:7f:cb:1b:62:
         18:b1:55:5a:3f:a4:d3:4f:59:82:21:a0:ef:b7:32:b0:2e:e7:
         33:06:79:a2:85:55:b7:38:0c:3d:5b:80:7f:6f:34:54:1b:0f:
         58:3d:ba:f8:e2:80:1c:e5:0f:85:5e:b6:82:b3:71:4a:82:d1:
         8f:fc:56:fc:56:f4:45:76:31:53:bf:ca:30:d8:2e:22:9d:a4:
         d7:9b:ef:b4:f7:fc:2c:1f:a2:cd:94:51:95:6d:06:7f:72:92:
         da:58:cb:83:3f:c3:4e:1b:e0:27:a1:4e:66:58:84:94:fc:c2:
         0d:9c:56:d7:be:ed:11:59:93:bb:11:e7:d7:dc:33:0e:09:11:
         16:3d:b0:91:5d:ab:42:b0:99:71:7e:c1:e8:33:8c:4f:25:ff:
         68:ae:6e:ef:ce:7f:84:55:e4:39:f9:50:bb:c5:4e:bd:a4:84:
         9a:05:1c:3a:b1:89:c7:33:66:20:c4:5f:5e:69:ef:47:31:d9:
         4e:d3:c7:b4:dd:37:ea:e2:2b:3b:d3:58:3e:52:23:b5:3a:fc:
         a3:f7:b3:a9:48:04:8c:b5
-----BEGIN CERTIFICATE-----
MIIFjDCCA3SgAwIBAgICEAkwDQYJKoZIhvcNAQELBQAwXDEcMBoGA1UECgwTVm9s
dW50ZWVyIENvbXB1dGluZzE8MDoGA1UEAwwzVm9sdW50ZWVyIENvbXB1dGluZyBT
aWduaW5nIENlcnRpZmljYXRpb24gQXV0aG9yaXR5MB4XDTE4MDYxNTExNTgxNVoX
DTE5MDYyNTExNTgxNVowQzEcMBoGA1UECgwTVm9sdW50ZWVyIENvbXB1dGluZzEN
MAsGA1UECgwEQ0VSTjEUMBIGA1UEAwwLTXJCb2luY0hvc3QwggIiMA0GCSqGSIb3
DQEBAQUAA4ICDwAwggIKAoICAQDEVeDiDNEErry24ZrVvIOIv+/lF+X/T/Id21eB
ZcUuao7pgPdPl+51cjsAeVy+ImYR1aVFKmWYFL7MCyCtwdxddZkHb8oAv19MF0a2
V486gzHbi9rX7OADcW7/bjEpORa5gcyBdRsiDvPey/H+N1IIDglbT3hheYw5rdzt
6IOLg+LwzlPhS1xfky+pir+Tb14sNmUzham9haXrQB0XVnkuM7RRfpnxr8OkAkYJ
RkPVuY9c+ZK0vxk6xGsGgNRh8BFMuXeNbfmXaZqk+QLKUwgzA1fsCqunGuBqRh5G
LnZ7tck9hPo4OmcP1Z3fcYFgVsL57GFpfAPljko6Q2fvqmaK7U7VvygUNT9k9rbJ
t0ePNbu6jqboC7SzWgjy4jFUmgxFqsUIoyWqDCyjO9WKCVrJ/ZhJgLPFB/BBZBtt
crPRT1+lbANvVFSJTmhLNsNFvRuiJJuEeSOOI2gHjDW+52N83U+L8R1t8d/zeZyx
ozRPWQszK5nPveVv4f00E6jWZUPqSrwokS7pwtSfvg6mvoHs5RiV0h0+rLv+5VdM
IH2Kx0FY0TgbzxKNKse+GJ/mjYVIXmaI+hi0NkNXjdwfD2jB1chyr/flQvDFaFKm
YVuzfBH77izropRIoxEl3JrY1kFikpOqmCYc9Xb3Gq3IXM336fhgEkSjtnw+Ldja
xm/f1QIDAQABo3EwbzAJBgNVHRMEAjAAMA4GA1UdDwEB/wQEAwIFoDAdBgNVHSUE
FjAUBggrBgEFBQcDAQYIKwYBBQUHAwIwHQYDVR0OBBYEFDF6xR827dOppLg+EbPi
MddIPCarMBQGA1UdEQQNMAuCCWxvY2FsaG9zdDANBgkqhkiG9w0BAQsFAAOCAgEA
MHyPDEun9j88wVtsv05zx/0ffszWNkNueSOD2n0dMfh+2cnSLajUgxWMwNOiCzxO
np3/1FIwU6ePqM/gXj1x8R7jNagf/0PukpGqaxwLlRh0W9YBs6ZxkEKUoLhxRJUu
h+uVms0kVeNLp9lANdxR8B1xDqRMLHC+Z4o3tc42SwgwjnCV06QOd+vTwNjYk5m1
uWSJyH1BMOce7EX6+L3uf2JL8G8kYBYQoBBgc4HvvFghS/09rWDfw3G7jSK1qD4E
OqLmxOGklW62JhS8nfbrvglNCCdiSG4vj13lXmKpiDdd33/0X+jij3XtF9Jfg6cX
NIFpetTq/J0W57RPNz5ptfs+ZFFSOP/d1hctnGNpE0F4Ssm8ZoOOeeYqPdf+iZpK
jnLIRbupKjBHojH/P4t/yxtiGLFVWj+k009ZgiGg77cysC7nMwZ5ooVVtzgMPVuA
f280VBsPWD26+OKAHOUPhV62grNxSoLRj/xW/Fb0RXYxU7/KMNguIp2k15vvtPf8
LB+izZRRlW0Gf3KS2ljLgz/DThvgJ6FOZliElPzCDZxW177tEVmTuxHn19wzDgkR
Fj2wkV2rQrCZcX7B6DOMTyX/aK5u785/hFXkOflQu8VOvaSEmgUcOrGJxzNmIMRf
XmnvRzHZTtPHtN036uIrO9NYPlIjtTr8o/ezqUgEjLU=
-----END CERTIFICATE-----
