Certificate:
    Data:
        Version: 3 (0x2)
        Serial Number: 4106 (0x100a)
    Signature Algorithm: sha256WithRSAEncryption
        Issuer: O=Volunteer Computing, CN=Volunteer Computing Signing Certification Authority
        Validity
            Not Before: Jun 15 12:04:21 2018 GMT
            Not After : Jun 25 12:04:21 2019 GMT
        Subject: O=Volunteer Computing, O=CERN, CN=MrBoincHost
        Subject Public Key Info:
            Public Key Algorithm: rsaEncryption
                Public-Key: (4096 bit)
                Modulus:
                    00:c4:55:e0:e2:0c:d1:04:ae:bc:b6:e1:9a:d5:bc:
                    83:88:bf:ef:e5:17:e5:ff:4f:f2:1d:db:57:81:65:
                    c5:2e:6a:8e:e9:80:f7:4f:97:ee:75:72:3b:00:79:
                    5c:be:22:66:11:d5:a5:45:2a:65:98:14:be:cc:0b:
                    20:ad:c1:dc:5d:75:99:07:6f:ca:00:bf:5f:4c:17:
                    46:b6:57:8f:3a:83:31:db:8b:da:d7:ec:e0:03:71:
                    6e:ff:6e:31:29:39:16:b9:81:cc:81:75:1b:22:0e:
                    f3:de:cb:f1:fe:37:52:08:0e:09:5b:4f:78:61:79:
                    8c:39:ad:dc:ed:e8:83:8b:83:e2:f0:ce:53:e1:4b:
                    5c:5f:93:2f:a9:8a:bf:93:6f:5e:2c:36:65:33:85:
                    a9:bd:85:a5:eb:40:1d:17:56:79:2e:33:b4:51:7e:
                    99:f1:af:c3:a4:02:46:09:46:43:d5:b9:8f:5c:f9:
                    92:b4:bf:19:3a:c4:6b:06:80:d4:61:f0:11:4c:b9:
                    77:8d:6d:f9:97:69:9a:a4:f9:02:ca:53:08:33:03:
                    57:ec:0a:ab:a7:1a:e0:6a:46:1e:46:2e:76:7b:b5:
                    c9:3d:84:fa:38:3a:67:0f:d5:9d:df:71:81:60:56:
                    c2:f9:ec:61:69:7c:03:e5:8e:4a:3a:43:67:ef:aa:
                    66:8a:ed:4e:d5:bf:28:14:35:3f:64:f6:b6:c9:b7:
                    47:8f:35:bb:ba:8e:a6:e8:0b:b4:b3:5a:08:f2:e2:
                    31:54:9a:0c:45:aa:c5:08:a3:25:aa:0c:2c:a3:3b:
                    d5:8a:09:5a:c9:fd:98:49:80:b3:c5:07:f0:41:64:
                    1b:6d:72:b3:d1:4f:5f:a5:6c:03:6f:54:54:89:4e:
                    68:4b:36:c3:45:bd:1b:a2:24:9b:84:79:23:8e:23:
                    68:07:8c:35:be:e7:63:7c:dd:4f:8b:f1:1d:6d:f1:
                    df:f3:79:9c:b1:a3:34:4f:59:0b:33:2b:99:cf:bd:
                    e5:6f:e1:fd:34:13:a8:d6:65:43:ea:4a:bc:28:91:
                    2e:e9:c2:d4:9f:be:0e:a6:be:81:ec:e5:18:95:d2:
                    1d:3e:ac:bb:fe:e5:57:4c:20:7d:8a:c7:41:58:d1:
                    38:1b:cf:12:8d:2a:c7:be:18:9f:e6:8d:85:48:5e:
                    66:88:fa:18:b4:36:43:57:8d:dc:1f:0f:68:c1:d5:
                    c8:72:af:f7:e5:42:f0:c5:68:52:a6:61:5b:b3:7c:
                    11:fb:ee:2c:eb:a2:94:48:a3:11:25:dc:9a:d8:d6:
                    41:62:92:93:aa:98:26:1c:f5:76:f7:1a:ad:c8:5c:
                    cd:f7:e9:f8:60:12:44:a3:b6:7c:3e:2d:d8:da:c6:
                    6f:df:d5
                Exponent: 65537 (0x10001)
        X509v3 extensions:
            X509v3 Basic Constraints: 
                CA:FALSE
            X509v3 Key Usage: critical
                Digital Signature, Key Encipherment
            X509v3 Extended Key Usage: 
                TLS Web Server Authentication, TLS Web Client Authentication
            X509v3 Subject Key Identifier: 
                31:7A:C5:1F:36:ED:D3:A9:A4:B8:3E:11:B3:E2:31:D7:48:3C:26:AB
            X509v3 Subject Alternative Name: 
                DNS:localhost, DNS:toto
    Signature Algorithm: sha256WithRSAEncryption
         65:5a:78:b8:3e:5c:43:4a:ba:d8:d6:1e:bb:c7:13:a3:55:a6:
         15:f8:63:c1:db:4f:7b:9a:b6:a0:37:53:58:ff:a4:90:0b:2c:
         87:f5:86:85:0d:bc:16:23:18:86:03:95:0c:f8:38:0e:83:01:
         5c:35:c9:fd:79:57:4d:7d:bc:e9:96:e0:de:bb:8f:5f:00:76:
         63:a6:b0:5e:f4:65:fc:ce:b6:a7:8f:a5:72:64:c0:eb:ab:49:
         29:97:03:eb:95:ed:d7:86:af:6d:a1:5b:00:76:f8:66:f3:84:
         58:12:94:d4:80:45:f1:0a:bd:e2:c1:31:7c:47:29:4c:c0:15:
         c3:e1:fb:e9:74:29:cc:8b:94:3c:b3:0d:0a:c8:65:e2:50:2f:
         54:02:bb:86:39:41:36:19:61:fd:4f:8b:bb:8e:ae:db:84:1a:
         e8:d1:d4:5d:7e:f3:0f:10:39:b3:20:9c:e7:9d:89:9f:5a:b5:
         1f:03:22:1a:7d:e2:b5:a8:84:60:9d:8f:92:70:c5:ad:57:e6:
         6e:cf:3e:27:43:f7:ce:3c:6e:aa:59:2f:8e:13:af:90:87:5c:
         4f:29:28:53:e5:01:7e:91:b6:7a:b9:e7:5c:e7:dc:bf:5d:bc:
         fd:7d:72:c6:1c:88:4d:86:f9:5a:8f:cf:1b:7f:b0:97:00:35:
         31:52:3a:a8:03:f3:c1:8d:34:d2:98:ab:48:9b:a6:88:8e:10:
         5c:e0:10:04:ff:f7:31:a9:5b:46:67:dd:f6:43:09:82:67:b4:
         cf:e0:1a:0a:22:38:c0:cf:7f:ae:af:61:21:33:54:63:b1:41:
         f9:30:3d:8f:fa:87:45:3b:8e:9c:36:64:78:fc:7b:97:ff:46:
         f5:67:05:09:96:bc:f6:03:e0:a1:dd:ec:35:98:2b:9c:98:0e:
         26:31:0b:16:3d:63:78:9c:15:9f:ea:f9:50:b8:3f:f2:7b:51:
         cc:60:78:20:12:3b:dc:60:58:61:f1:f2:17:10:08:75:da:b4:
         41:53:4d:b7:01:be:93:7e:5c:be:fc:7f:c4:d6:0b:67:c3:52:
         40:f8:0a:ba:89:ec:7d:b8:15:bf:b8:1c:61:04:0b:e4:05:26:
         27:40:8a:9a:93:7a:fd:4e:55:ea:94:0a:8f:96:f4:93:75:d5:
         8a:ef:e7:63:5c:ad:cc:27:44:53:8e:77:c7:78:8b:0c:6e:c1:
         bc:f1:52:cf:66:c0:ad:58:80:8c:28:d4:e4:86:b7:00:15:99:
         4a:27:91:a5:2a:14:87:ed:41:45:8e:eb:3a:5b:93:a9:76:c4:
         26:51:d2:50:ff:e4:aa:8e:be:0c:b8:59:11:f6:03:56:61:bd:
         76:fa:86:a2:7c:c1:26:8a
-----BEGIN CERTIFICATE-----
MIIFkjCCA3qgAwIBAgICEAowDQYJKoZIhvcNAQELBQAwXDEcMBoGA1UECgwTVm9s
dW50ZWVyIENvbXB1dGluZzE8MDoGA1UEAwwzVm9sdW50ZWVyIENvbXB1dGluZyBT
aWduaW5nIENlcnRpZmljYXRpb24gQXV0aG9yaXR5MB4XDTE4MDYxNTEyMDQyMVoX
DTE5MDYyNTEyMDQyMVowQzEcMBoGA1UECgwTVm9sdW50ZWVyIENvbXB1dGluZzEN
MAsGA1UECgwEQ0VSTjEUMBIGA1UEAwwLTXJCb2luY0hvc3QwggIiMA0GCSqGSIb3
DQEBAQUAA4ICDwAwggIKAoICAQDEVeDiDNEErry24ZrVvIOIv+/lF+X/T/Id21eB
ZcUuao7pgPdPl+51cjsAeVy+ImYR1aVFKmWYFL7MCyCtwdxddZkHb8oAv19MF0a2
V486gzHbi9rX7OADcW7/bjEpORa5gcyBdRsiDvPey/H+N1IIDglbT3hheYw5rdzt
6IOLg+LwzlPhS1xfky+pir+Tb14sNmUzham9haXrQB0XVnkuM7RRfpnxr8OkAkYJ
RkPVuY9c+ZK0vxk6xGsGgNRh8BFMuXeNbfmXaZqk+QLKUwgzA1fsCqunGuBqRh5G
LnZ7tck9hPo4OmcP1Z3fcYFgVsL57GFpfAPljko6Q2fvqmaK7U7VvygUNT9k9rbJ
t0ePNbu6jqboC7SzWgjy4jFUmgxFqsUIoyWqDCyjO9WKCVrJ/ZhJgLPFB/BBZBtt
crPRT1+lbANvVFSJTmhLNsNFvRuiJJuEeSOOI2gHjDW+52N83U+L8R1t8d/zeZyx
ozRPWQszK5nPveVv4f00E6jWZUPqSrwokS7pwtSfvg6mvoHs5RiV0h0+rLv+5VdM
IH2Kx0FY0TgbzxKNKse+GJ/mjYVIXmaI+hi0NkNXjdwfD2jB1chyr/flQvDFaFKm
YVuzfBH77izropRIoxEl3JrY1kFikpOqmCYc9Xb3Gq3IXM336fhgEkSjtnw+Ldja
xm/f1QIDAQABo3cwdTAJBgNVHRMEAjAAMA4GA1UdDwEB/wQEAwIFoDAdBgNVHSUE
FjAUBggrBgEFBQcDAQYIKwYBBQUHAwIwHQYDVR0OBBYEFDF6xR827dOppLg+EbPi
MddIPCarMBoGA1UdEQQTMBGCCWxvY2FsaG9zdIIEdG90bzANBgkqhkiG9w0BAQsF
AAOCAgEAZVp4uD5cQ0q62NYeu8cTo1WmFfhjwdtPe5q2oDdTWP+kkAssh/WGhQ28
FiMYhgOVDPg4DoMBXDXJ/XlXTX286Zbg3ruPXwB2Y6awXvRl/M62p4+lcmTA66tJ
KZcD65Xt14avbaFbAHb4ZvOEWBKU1IBF8Qq94sExfEcpTMAVw+H76XQpzIuUPLMN
Cshl4lAvVAK7hjlBNhlh/U+Lu46u24Qa6NHUXX7zDxA5syCc552Jn1q1HwMiGn3i
taiEYJ2PknDFrVfmbs8+J0P3zjxuqlkvjhOvkIdcTykoU+UBfpG2ernnXOfcv128
/X1yxhyITYb5Wo/PG3+wlwA1MVI6qAPzwY000pirSJumiI4QXOAQBP/3MalbRmfd
9kMJgme0z+AaCiI4wM9/rq9hITNUY7FB+TA9j/qHRTuOnDZkePx7l/9G9WcFCZa8
9gPgod3sNZgrnJgOJjELFj1jeJwVn+r5ULg/8ntRzGB4IBI73GBYYfHyFxAIddq0
QVNNtwG+k35cvvx/xNYLZ8NSQPgKuonsfbgVv7gcYQQL5AUmJ0CKmpN6/U5V6pQK
j5b0k3XViu/nY1ytzCdEU453x3iLDG7BvPFSz2bArViAjCjU5Ia3ABWZSieRpSoU
h+1BRY7rOluTqXbEJlHSUP/kqo6+DLhZEfYDVmG9dvqGonzBJoo=
-----END CERTIFICATE-----
