Certificate:
    Data:
        Version: 3 (0x2)
        Serial Number: 4107 (0x100b)
    Signature Algorithm: sha256WithRSAEncryption
        Issuer: O=Volunteer Computing, CN=Volunteer Computing Signing Certification Authority
        Validity
            Not Before: Jun 15 12:16:52 2018 GMT
            Not After : Jun 25 12:16:52 2019 GMT
        Subject: O=Volunteer Computing, O=CERN, CN=MrBoincHost
        Subject Public Key Info:
            Public Key Algorithm: rsaEncryption
                Public-Key: (4096 bit)
                Modulus:
                    00:c4:55:e0:e2:0c:d1:04:ae:bc:b6:e1:9a:d5:bc:
                    83:88:bf:ef:e5:17:e5:ff:4f:f2:1d:db:57:81:65:
                    c5:2e:6a:8e:e9:80:f7:4f:97:ee:75:72:3b:00:79:
                    5c:be:22:66:11:d5:a5:45:2a:65:98:14:be:cc:0b:
                    20:ad:c1:dc:5d:75:99:07:6f:ca:00:bf:5f:4c:17:
                    46:b6:57:8f:3a:83:31:db:8b:da:d7:ec:e0:03:71:
                    6e:ff:6e:31:29:39:16:b9:81:cc:81:75:1b:22:0e:
                    f3:de:cb:f1:fe:37:52:08:0e:09:5b:4f:78:61:79:
                    8c:39:ad:dc:ed:e8:83:8b:83:e2:f0:ce:53:e1:4b:
                    5c:5f:93:2f:a9:8a:bf:93:6f:5e:2c:36:65:33:85:
                    a9:bd:85:a5:eb:40:1d:17:56:79:2e:33:b4:51:7e:
                    99:f1:af:c3:a4:02:46:09:46:43:d5:b9:8f:5c:f9:
                    92:b4:bf:19:3a:c4:6b:06:80:d4:61:f0:11:4c:b9:
                    77:8d:6d:f9:97:69:9a:a4:f9:02:ca:53:08:33:03:
                    57:ec:0a:ab:a7:1a:e0:6a:46:1e:46:2e:76:7b:b5:
                    c9:3d:84:fa:38:3a:67:0f:d5:9d:df:71:81:60:56:
                    c2:f9:ec:61:69:7c:03:e5:8e:4a:3a:43:67:ef:aa:
                    66:8a:ed:4e:d5:bf:28:14:35:3f:64:f6:b6:c9:b7:
                    47:8f:35:bb:ba:8e:a6:e8:0b:b4:b3:5a:08:f2:e2:
                    31:54:9a:0c:45:aa:c5:08:a3:25:aa:0c:2c:a3:3b:
                    d5:8a:09:5a:c9:fd:98:49:80:b3:c5:07:f0:41:64:
                    1b:6d:72:b3:d1:4f:5f:a5:6c:03:6f:54:54:89:4e:
                    68:4b:36:c3:45:bd:1b:a2:24:9b:84:79:23:8e:23:
                    68:07:8c:35:be:e7:63:7c:dd:4f:8b:f1:1d:6d:f1:
                    df:f3:79:9c:b1:a3:34:4f:59:0b:33:2b:99:cf:bd:
                    e5:6f:e1:fd:34:13:a8:d6:65:43:ea:4a:bc:28:91:
                    2e:e9:c2:d4:9f:be:0e:a6:be:81:ec:e5:18:95:d2:
                    1d:3e:ac:bb:fe:e5:57:4c:20:7d:8a:c7:41:58:d1:
                    38:1b:cf:12:8d:2a:c7:be:18:9f:e6:8d:85:48:5e:
                    66:88:fa:18:b4:36:43:57:8d:dc:1f:0f:68:c1:d5:
                    c8:72:af:f7:e5:42:f0:c5:68:52:a6:61:5b:b3:7c:
                    11:fb:ee:2c:eb:a2:94:48:a3:11:25:dc:9a:d8:d6:
                    41:62:92:93:aa:98:26:1c:f5:76:f7:1a:ad:c8:5c:
                    cd:f7:e9:f8:60:12:44:a3:b6:7c:3e:2d:d8:da:c6:
                    6f:df:d5
                Exponent: 65537 (0x10001)
        X509v3 extensions:
            X509v3 Basic Constraints: 
                CA:FALSE
            X509v3 Key Usage: critical
                Digital Signature, Key Encipherment
            X509v3 Extended Key Usage: 
                TLS Web Server Authentication, TLS Web Client Authentication
            X509v3 Subject Key Identifier: 
                31:7A:C5:1F:36:ED:D3:A9:A4:B8:3E:11:B3:E2:31:D7:48:3C:26:AB
            X509v3 Subject Alternative Name: 
                DNS:MrBoincHost, DNS:localhost
    Signature Algorithm: sha256WithRSAEncryption
         3d:e5:1e:52:7c:88:d8:7d:47:3b:f2:f4:ee:af:57:ae:49:a7:
         33:fd:e4:b4:d7:74:64:34:d1:3b:a2:08:6f:fb:d3:d3:68:39:
         d2:58:d9:19:46:a2:8a:4d:92:3a:7d:22:11:63:2c:b6:45:a4:
         72:7b:05:57:cf:8d:de:3a:a7:14:53:cb:bb:f3:4b:9a:be:86:
         21:77:4f:ab:1e:60:77:9d:2b:e2:45:5f:9a:4c:69:73:5a:c3:
         51:53:22:b7:44:14:0a:95:e2:8e:97:96:ff:31:15:b0:f3:4e:
         5f:cb:de:25:59:6b:ea:af:e8:c1:b8:58:79:75:51:da:c7:c1:
         25:39:6b:4c:5a:1b:a7:36:38:f4:b5:55:b6:f4:0a:36:cf:29:
         d7:74:2a:0b:74:70:b0:2e:5e:c5:12:c7:be:a9:82:b8:48:58:
         0f:36:84:8b:83:1e:02:d6:d5:b0:5e:b3:1f:ac:83:4c:58:07:
         84:20:ae:05:37:10:7a:4e:c2:5a:97:1e:03:2e:a6:89:52:4e:
         ed:b4:25:a7:b1:02:d9:ba:0f:1e:00:6c:32:b5:e8:13:5c:74:
         36:57:9b:37:28:44:25:8b:d3:bc:a2:f6:a7:3d:51:ce:b1:85:
         e2:5c:d7:db:6a:31:fa:7d:29:71:6f:cf:9d:23:8e:71:3c:40:
         ba:9e:c4:d1:40:2c:13:96:b8:51:e5:17:f6:0f:a2:95:cc:db:
         50:c3:34:10:5b:3b:dc:9b:d2:fc:d7:83:ad:9f:ad:41:40:69:
         cd:ea:65:36:c8:b0:bc:df:0e:a6:f6:a2:a5:4e:9b:1d:24:0e:
         a6:7c:ba:bc:e9:6c:5f:be:00:54:7b:5a:10:0e:73:c6:20:b3:
         ef:8d:14:dc:4a:b2:4a:f2:39:7d:e2:15:8c:4f:44:1a:c3:5c:
         d7:32:9d:8a:15:38:66:bf:f7:d0:4d:6c:50:62:c0:47:ee:fa:
         70:22:6d:18:34:00:6a:f4:3e:57:4c:2b:3d:6b:4a:73:33:26:
         d1:7d:23:33:35:09:cb:24:79:6d:91:4d:28:d0:e6:22:7e:9e:
         3c:95:b8:c4:af:ee:68:92:77:0e:4e:da:54:ca:9d:7b:b1:c9:
         d4:4d:a3:cb:da:04:15:45:e5:8f:c4:f9:b1:7b:4b:8f:d6:71:
         42:e9:3a:55:49:06:22:65:55:e1:0d:c1:55:6e:95:ae:da:9a:
         24:fa:23:42:83:d2:d4:d2:4c:f9:0e:bb:0b:a2:4c:7c:d2:6e:
         6e:79:32:8a:7f:e6:06:d2:98:92:70:32:3c:d9:9f:bb:55:3f:
         bf:96:88:02:e9:03:5b:62:2e:88:80:13:d8:e9:e4:8f:61:63:
         d1:44:5f:62:99:a9:9b:a9
-----BEGIN CERTIFICATE-----
MIIFmTCCA4GgAwIBAgICEAswDQYJKoZIhvcNAQELBQAwXDEcMBoGA1UECgwTVm9s
dW50ZWVyIENvbXB1dGluZzE8MDoGA1UEAwwzVm9sdW50ZWVyIENvbXB1dGluZyBT
aWduaW5nIENlcnRpZmljYXRpb24gQXV0aG9yaXR5MB4XDTE4MDYxNTEyMTY1MloX
DTE5MDYyNTEyMTY1MlowQzEcMBoGA1UECgwTVm9sdW50ZWVyIENvbXB1dGluZzEN
MAsGA1UECgwEQ0VSTjEUMBIGA1UEAwwLTXJCb2luY0hvc3QwggIiMA0GCSqGSIb3
DQEBAQUAA4ICDwAwggIKAoICAQDEVeDiDNEErry24ZrVvIOIv+/lF+X/T/Id21eB
ZcUuao7pgPdPl+51cjsAeVy+ImYR1aVFKmWYFL7MCyCtwdxddZkHb8oAv19MF0a2
V486gzHbi9rX7OADcW7/bjEpORa5gcyBdRsiDvPey/H+N1IIDglbT3hheYw5rdzt
6IOLg+LwzlPhS1xfky+pir+Tb14sNmUzham9haXrQB0XVnkuM7RRfpnxr8OkAkYJ
RkPVuY9c+ZK0vxk6xGsGgNRh8BFMuXeNbfmXaZqk+QLKUwgzA1fsCqunGuBqRh5G
LnZ7tck9hPo4OmcP1Z3fcYFgVsL57GFpfAPljko6Q2fvqmaK7U7VvygUNT9k9rbJ
t0ePNbu6jqboC7SzWgjy4jFUmgxFqsUIoyWqDCyjO9WKCVrJ/ZhJgLPFB/BBZBtt
crPRT1+lbANvVFSJTmhLNsNFvRuiJJuEeSOOI2gHjDW+52N83U+L8R1t8d/zeZyx
ozRPWQszK5nPveVv4f00E6jWZUPqSrwokS7pwtSfvg6mvoHs5RiV0h0+rLv+5VdM
IH2Kx0FY0TgbzxKNKse+GJ/mjYVIXmaI+hi0NkNXjdwfD2jB1chyr/flQvDFaFKm
YVuzfBH77izropRIoxEl3JrY1kFikpOqmCYc9Xb3Gq3IXM336fhgEkSjtnw+Ldja
xm/f1QIDAQABo34wfDAJBgNVHRMEAjAAMA4GA1UdDwEB/wQEAwIFoDAdBgNVHSUE
FjAUBggrBgEFBQcDAQYIKwYBBQUHAwIwHQYDVR0OBBYEFDF6xR827dOppLg+EbPi
MddIPCarMCEGA1UdEQQaMBiCC01yQm9pbmNIb3N0gglsb2NhbGhvc3QwDQYJKoZI
hvcNAQELBQADggIBAD3lHlJ8iNh9Rzvy9O6vV65JpzP95LTXdGQ00TuiCG/709No
OdJY2RlGoopNkjp9IhFjLLZFpHJ7BVfPjd46pxRTy7vzS5q+hiF3T6seYHedK+JF
X5pMaXNaw1FTIrdEFAqV4o6Xlv8xFbDzTl/L3iVZa+qv6MG4WHl1UdrHwSU5a0xa
G6c2OPS1Vbb0CjbPKdd0Kgt0cLAuXsUSx76pgrhIWA82hIuDHgLW1bBesx+sg0xY
B4QgrgU3EHpOwlqXHgMupolSTu20JaexAtm6Dx4AbDK16BNcdDZXmzcoRCWL07yi
9qc9Uc6xheJc19tqMfp9KXFvz50jjnE8QLqexNFALBOWuFHlF/YPopXM21DDNBBb
O9yb0vzXg62frUFAac3qZTbIsLzfDqb2oqVOmx0kDqZ8urzpbF++AFR7WhAOc8Yg
s++NFNxKskryOX3iFYxPRBrDXNcynYoVOGa/99BNbFBiwEfu+nAibRg0AGr0PldM
Kz1rSnMzJtF9IzM1CcskeW2RTSjQ5iJ+njyVuMSv7miSdw5O2lTKnXuxydRNo8va
BBVF5Y/E+bF7S4/WcULpOlVJBiJlVeENwVVula7amiT6I0KD0tTSTPkOuwuiTHzS
bm55Mop/5gbSmJJwMjzZn7tVP7+WiALpA1tiLoiAE9jp5I9hY9FEX2KZqZup
-----END CERTIFICATE-----
