Certificate:
    Data:
        Version: 3 (0x2)
        Serial Number: 4108 (0x100c)
    Signature Algorithm: sha256WithRSAEncryption
        Issuer: O=Volunteer Computing, CN=Volunteer Computing Signing Certification Authority
        Validity
            Not Before: Jun 15 12:45:37 2018 GMT
            Not After : Jun 25 12:45:37 2019 GMT
        Subject: O=Volunteer Computing, O=CERN, CN=MrBoincHost
        Subject Public Key Info:
            Public Key Algorithm: rsaEncryption
                Public-Key: (4096 bit)
                Modulus:
                    00:c4:55:e0:e2:0c:d1:04:ae:bc:b6:e1:9a:d5:bc:
                    83:88:bf:ef:e5:17:e5:ff:4f:f2:1d:db:57:81:65:
                    c5:2e:6a:8e:e9:80:f7:4f:97:ee:75:72:3b:00:79:
                    5c:be:22:66:11:d5:a5:45:2a:65:98:14:be:cc:0b:
                    20:ad:c1:dc:5d:75:99:07:6f:ca:00:bf:5f:4c:17:
                    46:b6:57:8f:3a:83:31:db:8b:da:d7:ec:e0:03:71:
                    6e:ff:6e:31:29:39:16:b9:81:cc:81:75:1b:22:0e:
                    f3:de:cb:f1:fe:37:52:08:0e:09:5b:4f:78:61:79:
                    8c:39:ad:dc:ed:e8:83:8b:83:e2:f0:ce:53:e1:4b:
                    5c:5f:93:2f:a9:8a:bf:93:6f:5e:2c:36:65:33:85:
                    a9:bd:85:a5:eb:40:1d:17:56:79:2e:33:b4:51:7e:
                    99:f1:af:c3:a4:02:46:09:46:43:d5:b9:8f:5c:f9:
                    92:b4:bf:19:3a:c4:6b:06:80:d4:61:f0:11:4c:b9:
                    77:8d:6d:f9:97:69:9a:a4:f9:02:ca:53:08:33:03:
                    57:ec:0a:ab:a7:1a:e0:6a:46:1e:46:2e:76:7b:b5:
                    c9:3d:84:fa:38:3a:67:0f:d5:9d:df:71:81:60:56:
                    c2:f9:ec:61:69:7c:03:e5:8e:4a:3a:43:67:ef:aa:
                    66:8a:ed:4e:d5:bf:28:14:35:3f:64:f6:b6:c9:b7:
                    47:8f:35:bb:ba:8e:a6:e8:0b:b4:b3:5a:08:f2:e2:
                    31:54:9a:0c:45:aa:c5:08:a3:25:aa:0c:2c:a3:3b:
                    d5:8a:09:5a:c9:fd:98:49:80:b3:c5:07:f0:41:64:
                    1b:6d:72:b3:d1:4f:5f:a5:6c:03:6f:54:54:89:4e:
                    68:4b:36:c3:45:bd:1b:a2:24:9b:84:79:23:8e:23:
                    68:07:8c:35:be:e7:63:7c:dd:4f:8b:f1:1d:6d:f1:
                    df:f3:79:9c:b1:a3:34:4f:59:0b:33:2b:99:cf:bd:
                    e5:6f:e1:fd:34:13:a8:d6:65:43:ea:4a:bc:28:91:
                    2e:e9:c2:d4:9f:be:0e:a6:be:81:ec:e5:18:95:d2:
                    1d:3e:ac:bb:fe:e5:57:4c:20:7d:8a:c7:41:58:d1:
                    38:1b:cf:12:8d:2a:c7:be:18:9f:e6:8d:85:48:5e:
                    66:88:fa:18:b4:36:43:57:8d:dc:1f:0f:68:c1:d5:
                    c8:72:af:f7:e5:42:f0:c5:68:52:a6:61:5b:b3:7c:
                    11:fb:ee:2c:eb:a2:94:48:a3:11:25:dc:9a:d8:d6:
                    41:62:92:93:aa:98:26:1c:f5:76:f7:1a:ad:c8:5c:
                    cd:f7:e9:f8:60:12:44:a3:b6:7c:3e:2d:d8:da:c6:
                    6f:df:d5
                Exponent: 65537 (0x10001)
        X509v3 extensions:
            X509v3 Basic Constraints: 
                CA:TRUE
            X509v3 Key Usage: critical
                Digital Signature, Key Encipherment
            X509v3 Extended Key Usage: 
                TLS Web Server Authentication, TLS Web Client Authentication
            X509v3 Subject Key Identifier: 
                31:7A:C5:1F:36:ED:D3:A9:A4:B8:3E:11:B3:E2:31:D7:48:3C:26:AB
            X509v3 Subject Alternative Name: 
                DNS:MrBoincHost, DNS:localhost
    Signature Algorithm: sha256WithRSAEncryption
         a8:70:e7:f4:8d:c0:46:3f:ce:f8:51:98:46:e1:65:79:59:f4:
         b7:bd:d4:99:32:96:9d:3d:03:d4:9f:05:92:97:d3:19:01:c1:
         b1:9e:17:fe:21:3a:ff:33:d7:71:20:d3:66:7a:2a:36:5b:87:
         b4:49:50:23:17:77:7c:16:9e:2c:2a:97:f3:ef:13:c8:fc:8d:
         a1:29:4c:ad:20:89:bb:bb:04:34:bd:8a:61:c3:e5:fc:4b:6b:
         4b:a5:3a:98:69:c0:55:d1:ad:b5:ee:03:69:0e:36:c4:34:53:
         2a:eb:3e:6d:f0:d6:88:76:25:ea:e5:17:4a:4d:f5:ea:0d:1f:
         70:3b:bf:ea:9a:3a:97:00:72:32:12:9d:6c:88:0e:98:6b:ff:
         80:e3:c6:e3:44:3d:b3:55:2d:ba:8d:5c:34:bf:d8:42:79:96:
         f9:c0:3f:d4:fc:4f:6b:a3:76:09:2b:03:d2:22:4f:ff:16:7f:
         24:5a:f2:d4:60:39:a8:e2:e8:7a:6d:a5:e9:02:5c:05:41:52:
         2c:9e:db:d6:6d:21:96:78:c0:91:d4:eb:5c:1d:05:79:3e:f9:
         a9:0a:b1:30:26:70:5e:90:52:6c:15:e4:65:38:13:3d:c5:2f:
         81:ae:4d:9d:f9:40:5e:16:69:50:86:16:3b:50:f3:ba:c0:99:
         79:65:64:dc:c7:9f:a7:f2:ab:f0:f8:52:7a:9d:2e:8f:fe:e6:
         80:1b:99:b1:9a:50:f0:19:7d:33:6e:c0:4c:0f:d8:07:13:cf:
         79:64:1a:e5:14:65:09:ed:84:e7:65:ce:59:49:05:25:e3:78:
         5b:6d:b7:69:09:24:18:73:30:2e:25:0c:1c:33:28:4f:e4:0d:
         17:5a:7a:c8:21:dc:e4:71:d1:7f:02:d5:32:87:d4:94:b8:6a:
         87:4c:69:72:e4:c4:76:cf:f6:ee:bc:dd:ea:f4:ab:ed:bd:9b:
         b9:55:bd:c6:21:25:f1:9c:cc:ea:26:1b:29:ba:3d:ca:7b:34:
         ff:4e:e1:d9:80:35:c8:8d:68:de:f6:d5:f5:37:11:95:75:6c:
         57:fe:2d:8c:eb:89:de:cb:42:5e:3e:c7:f8:04:01:3a:01:32:
         bf:f1:88:a3:84:07:91:56:7f:cb:1d:8d:d4:50:d3:72:3c:69:
         4d:7b:04:1c:06:b9:ef:db:1c:4c:9c:55:52:40:18:3d:bd:2f:
         80:64:77:6f:a6:89:63:8a:cf:da:4e:4a:fe:9f:75:e3:5a:5e:
         3c:ed:48:99:ad:67:42:31:5d:35:10:d4:bf:85:0a:4b:34:9b:
         a0:f8:dd:94:77:7a:32:65:96:41:0c:90:63:70:47:8b:b6:e3:
         8a:78:4c:a8:45:8a:be:8a
-----BEGIN CERTIFICATE-----
MIIFnTCCA4WgAwIBAgICEAwwDQYJKoZIhvcNAQELBQAwXDEcMBoGA1UECgwTVm9s
dW50ZWVyIENvbXB1dGluZzE8MDoGA1UEAwwzVm9sdW50ZWVyIENvbXB1dGluZyBT
aWduaW5nIENlcnRpZmljYXRpb24gQXV0aG9yaXR5MB4XDTE4MDYxNTEyNDUzN1oX
DTE5MDYyNTEyNDUzN1owQzEcMBoGA1UECgwTVm9sdW50ZWVyIENvbXB1dGluZzEN
MAsGA1UECgwEQ0VSTjEUMBIGA1UEAwwLTXJCb2luY0hvc3QwggIiMA0GCSqGSIb3
DQEBAQUAA4ICDwAwggIKAoICAQDEVeDiDNEErry24ZrVvIOIv+/lF+X/T/Id21eB
ZcUuao7pgPdPl+51cjsAeVy+ImYR1aVFKmWYFL7MCyCtwdxddZkHb8oAv19MF0a2
V486gzHbi9rX7OADcW7/bjEpORa5gcyBdRsiDvPey/H+N1IIDglbT3hheYw5rdzt
6IOLg+LwzlPhS1xfky+pir+Tb14sNmUzham9haXrQB0XVnkuM7RRfpnxr8OkAkYJ
RkPVuY9c+ZK0vxk6xGsGgNRh8BFMuXeNbfmXaZqk+QLKUwgzA1fsCqunGuBqRh5G
LnZ7tck9hPo4OmcP1Z3fcYFgVsL57GFpfAPljko6Q2fvqmaK7U7VvygUNT9k9rbJ
t0ePNbu6jqboC7SzWgjy4jFUmgxFqsUIoyWqDCyjO9WKCVrJ/ZhJgLPFB/BBZBtt
crPRT1+lbANvVFSJTmhLNsNFvRuiJJuEeSOOI2gHjDW+52N83U+L8R1t8d/zeZyx
ozRPWQszK5nPveVv4f00E6jWZUPqSrwokS7pwtSfvg6mvoHs5RiV0h0+rLv+5VdM
IH2Kx0FY0TgbzxKNKse+GJ/mjYVIXmaI+hi0NkNXjdwfD2jB1chyr/flQvDFaFKm
YVuzfBH77izropRIoxEl3JrY1kFikpOqmCYc9Xb3Gq3IXM336fhgEkSjtnw+Ldja
xm/f1QIDAQABo4GBMH8wDAYDVR0TBAUwAwEB/zAOBgNVHQ8BAf8EBAMCBaAwHQYD
VR0lBBYwFAYIKwYBBQUHAwEGCCsGAQUFBwMCMB0GA1UdDgQWBBQxesUfNu3TqaS4
PhGz4jHXSDwmqzAhBgNVHREEGjAYggtNckJvaW5jSG9zdIIJbG9jYWxob3N0MA0G
CSqGSIb3DQEBCwUAA4ICAQCocOf0jcBGP874UZhG4WV5WfS3vdSZMpadPQPUnwWS
l9MZAcGxnhf+ITr/M9dxINNmeio2W4e0SVAjF3d8Fp4sKpfz7xPI/I2hKUytIIm7
uwQ0vYphw+X8S2tLpTqYacBV0a217gNpDjbENFMq6z5t8NaIdiXq5RdKTfXqDR9w
O7/qmjqXAHIyEp1siA6Ya/+A48bjRD2zVS26jVw0v9hCeZb5wD/U/E9ro3YJKwPS
Ik//Fn8kWvLUYDmo4uh6baXpAlwFQVIsntvWbSGWeMCR1OtcHQV5PvmpCrEwJnBe
kFJsFeRlOBM9xS+Brk2d+UBeFmlQhhY7UPO6wJl5ZWTcx5+n8qvw+FJ6nS6P/uaA
G5mxmlDwGX0zbsBMD9gHE895ZBrlFGUJ7YTnZc5ZSQUl43hbbbdpCSQYczAuJQwc
MyhP5A0XWnrIIdzkcdF/AtUyh9SUuGqHTGly5MR2z/buvN3q9KvtvZu5Vb3GISXx
nMzqJhspuj3KezT/TuHZgDXIjWje9tX1NxGVdWxX/i2M64ney0JePsf4BAE6ATK/
8YijhAeRVn/LHY3UUNNyPGlNewQcBrnv2xxMnFVSQBg9vS+AZHdvpoljis/aTkr+
n3XjWl487UiZrWdCMV01ENS/hQpLNJug+N2Ud3oyZZZBDJBjcEeLtuOKeEyoRYq+
ig==
-----END CERTIFICATE-----
