Certificate:
    Data:
        Version: 3 (0x2)
        Serial Number: 4109 (0x100d)
    Signature Algorithm: sha256WithRSAEncryption
        Issuer: O=Volunteer Computing, CN=Volunteer Computing Signing Certification Authority
        Validity
            Not Before: Jul  4 13:32:28 2018 GMT
            Not After : Jul 14 13:32:28 2019 GMT
        Subject: O=Volunteer Computing, O=CERN, CN=MrBoincHost
        Subject Public Key Info:
            Public Key Algorithm: rsaEncryption
                Public-Key: (4096 bit)
                Modulus:
                    00:c4:55:e0:e2:0c:d1:04:ae:bc:b6:e1:9a:d5:bc:
                    83:88:bf:ef:e5:17:e5:ff:4f:f2:1d:db:57:81:65:
                    c5:2e:6a:8e:e9:80:f7:4f:97:ee:75:72:3b:00:79:
                    5c:be:22:66:11:d5:a5:45:2a:65:98:14:be:cc:0b:
                    20:ad:c1:dc:5d:75:99:07:6f:ca:00:bf:5f:4c:17:
                    46:b6:57:8f:3a:83:31:db:8b:da:d7:ec:e0:03:71:
                    6e:ff:6e:31:29:39:16:b9:81:cc:81:75:1b:22:0e:
                    f3:de:cb:f1:fe:37:52:08:0e:09:5b:4f:78:61:79:
                    8c:39:ad:dc:ed:e8:83:8b:83:e2:f0:ce:53:e1:4b:
                    5c:5f:93:2f:a9:8a:bf:93:6f:5e:2c:36:65:33:85:
                    a9:bd:85:a5:eb:40:1d:17:56:79:2e:33:b4:51:7e:
                    99:f1:af:c3:a4:02:46:09:46:43:d5:b9:8f:5c:f9:
                    92:b4:bf:19:3a:c4:6b:06:80:d4:61:f0:11:4c:b9:
                    77:8d:6d:f9:97:69:9a:a4:f9:02:ca:53:08:33:03:
                    57:ec:0a:ab:a7:1a:e0:6a:46:1e:46:2e:76:7b:b5:
                    c9:3d:84:fa:38:3a:67:0f:d5:9d:df:71:81:60:56:
                    c2:f9:ec:61:69:7c:03:e5:8e:4a:3a:43:67:ef:aa:
                    66:8a:ed:4e:d5:bf:28:14:35:3f:64:f6:b6:c9:b7:
                    47:8f:35:bb:ba:8e:a6:e8:0b:b4:b3:5a:08:f2:e2:
                    31:54:9a:0c:45:aa:c5:08:a3:25:aa:0c:2c:a3:3b:
                    d5:8a:09:5a:c9:fd:98:49:80:b3:c5:07:f0:41:64:
                    1b:6d:72:b3:d1:4f:5f:a5:6c:03:6f:54:54:89:4e:
                    68:4b:36:c3:45:bd:1b:a2:24:9b:84:79:23:8e:23:
                    68:07:8c:35:be:e7:63:7c:dd:4f:8b:f1:1d:6d:f1:
                    df:f3:79:9c:b1:a3:34:4f:59:0b:33:2b:99:cf:bd:
                    e5:6f:e1:fd:34:13:a8:d6:65:43:ea:4a:bc:28:91:
                    2e:e9:c2:d4:9f:be:0e:a6:be:81:ec:e5:18:95:d2:
                    1d:3e:ac:bb:fe:e5:57:4c:20:7d:8a:c7:41:58:d1:
                    38:1b:cf:12:8d:2a:c7:be:18:9f:e6:8d:85:48:5e:
                    66:88:fa:18:b4:36:43:57:8d:dc:1f:0f:68:c1:d5:
                    c8:72:af:f7:e5:42:f0:c5:68:52:a6:61:5b:b3:7c:
                    11:fb:ee:2c:eb:a2:94:48:a3:11:25:dc:9a:d8:d6:
                    41:62:92:93:aa:98:26:1c:f5:76:f7:1a:ad:c8:5c:
                    cd:f7:e9:f8:60:12:44:a3:b6:7c:3e:2d:d8:da:c6:
                    6f:df:d5
                Exponent: 65537 (0x10001)
        X509v3 extensions:
            X509v3 Basic Constraints: 
                CA:FALSE
            X509v3 Key Usage: critical
                Digital Signature, Key Encipherment
            X509v3 Extended Key Usage: 
                TLS Web Server Authentication, TLS Web Client Authentication
            X509v3 Subject Key Identifier: 
                31:7A:C5:1F:36:ED:D3:A9:A4:B8:3E:11:B3:E2:31:D7:48:3C:26:AB
            X509v3 Subject Alternative Name: 
                DNS:MrBoincHost, DNS:localhost
    Signature Algorithm: sha256WithRSAEncryption
         5c:64:a1:de:2c:56:19:f6:83:16:3f:54:66:b2:fd:97:0a:5f:
         a4:41:2d:db:3c:7e:2c:ab:68:8e:c7:1d:04:ea:e7:8b:6a:48:
         c8:e6:c7:c8:6f:8d:0a:fe:fa:8e:d7:a4:89:d3:34:7e:dd:0d:
         24:19:dd:b9:4f:7b:ce:0e:dc:f6:c0:79:c3:d1:1e:e6:35:c3:
         af:8a:c2:54:53:06:fa:11:af:28:a5:f3:a1:75:35:0b:4d:1e:
         58:f2:7c:0f:89:24:e8:f0:76:42:b1:11:cc:b7:57:f7:e2:1b:
         fb:e9:3a:b8:d6:67:04:64:bb:87:0a:f7:e6:8b:02:73:33:ef:
         fd:9e:29:f1:59:0d:76:87:5b:83:f3:67:39:93:5c:6c:b1:57:
         6c:d5:15:6e:48:11:21:8a:9b:28:a4:5f:cd:66:29:de:db:b1:
         aa:3d:67:d1:f1:7e:44:ea:08:4e:40:c5:cb:02:6a:12:ad:5a:
         b9:91:c2:8b:7a:f5:e0:39:00:7b:b6:c4:13:60:1a:1a:dd:d7:
         ac:ff:28:05:bc:e4:79:41:62:1d:54:a4:79:d6:0d:b7:3c:84:
         bb:f7:e7:d8:ad:bf:e5:23:9b:14:15:bf:2d:dd:66:41:88:e2:
         24:1d:c7:70:2a:a0:54:a9:31:1a:b6:ac:e8:d3:fb:4c:f9:1e:
         21:cd:c6:ce:2a:e7:2c:12:79:00:cb:c0:cf:e4:fd:11:5f:02:
         b5:2e:24:1e:4b:00:ed:9c:fc:d6:fa:78:f1:94:26:6d:58:2a:
         45:87:ab:84:e3:e8:50:ee:20:be:aa:e3:5f:a5:11:6c:52:df:
         d0:8e:8f:1d:b8:78:be:3a:a5:a7:86:e0:7b:e4:60:ca:80:73:
         2d:44:38:87:f0:55:6d:9e:ea:50:f8:29:84:54:bd:f8:37:aa:
         1c:80:5b:0a:df:42:1f:35:87:fe:bd:56:56:d0:f1:50:fd:42:
         a7:c0:e0:df:70:56:b9:73:7d:53:5d:47:4e:bc:2d:19:35:b0:
         be:1d:3a:d9:a5:4d:c7:30:38:dc:d4:3a:d5:25:25:47:4d:e6:
         24:56:bb:10:1b:b8:6f:a5:6b:32:c4:78:58:05:d8:98:b9:9c:
         e6:d9:58:33:1c:64:e2:b1:b6:e1:14:b6:3c:16:aa:a1:77:d5:
         47:09:39:59:f9:28:5a:56:5b:c8:46:2b:c3:72:43:e2:82:f9:
         f8:f6:26:b2:04:f9:5d:7b:1f:49:d5:f9:50:72:b7:04:2b:9f:
         4b:17:f5:11:cc:dc:1a:b5:f9:38:93:69:f5:d1:23:df:74:23:
         ee:ae:8d:dd:9f:59:97:91:be:54:c6:35:54:b0:a6:6e:8e:7f:
         1b:f6:ac:10:ad:5f:79:10
-----BEGIN CERTIFICATE-----
MIIFmTCCA4GgAwIBAgICEA0wDQYJKoZIhvcNAQELBQAwXDEcMBoGA1UECgwTVm9s
dW50ZWVyIENvbXB1dGluZzE8MDoGA1UEAwwzVm9sdW50ZWVyIENvbXB1dGluZyBT
aWduaW5nIENlcnRpZmljYXRpb24gQXV0aG9yaXR5MB4XDTE4MDcwNDEzMzIyOFoX
DTE5MDcxNDEzMzIyOFowQzEcMBoGA1UECgwTVm9sdW50ZWVyIENvbXB1dGluZzEN
MAsGA1UECgwEQ0VSTjEUMBIGA1UEAwwLTXJCb2luY0hvc3QwggIiMA0GCSqGSIb3
DQEBAQUAA4ICDwAwggIKAoICAQDEVeDiDNEErry24ZrVvIOIv+/lF+X/T/Id21eB
ZcUuao7pgPdPl+51cjsAeVy+ImYR1aVFKmWYFL7MCyCtwdxddZkHb8oAv19MF0a2
V486gzHbi9rX7OADcW7/bjEpORa5gcyBdRsiDvPey/H+N1IIDglbT3hheYw5rdzt
6IOLg+LwzlPhS1xfky+pir+Tb14sNmUzham9haXrQB0XVnkuM7RRfpnxr8OkAkYJ
RkPVuY9c+ZK0vxk6xGsGgNRh8BFMuXeNbfmXaZqk+QLKUwgzA1fsCqunGuBqRh5G
LnZ7tck9hPo4OmcP1Z3fcYFgVsL57GFpfAPljko6Q2fvqmaK7U7VvygUNT9k9rbJ
t0ePNbu6jqboC7SzWgjy4jFUmgxFqsUIoyWqDCyjO9WKCVrJ/ZhJgLPFB/BBZBtt
crPRT1+lbANvVFSJTmhLNsNFvRuiJJuEeSOOI2gHjDW+52N83U+L8R1t8d/zeZyx
ozRPWQszK5nPveVv4f00E6jWZUPqSrwokS7pwtSfvg6mvoHs5RiV0h0+rLv+5VdM
IH2Kx0FY0TgbzxKNKse+GJ/mjYVIXmaI+hi0NkNXjdwfD2jB1chyr/flQvDFaFKm
YVuzfBH77izropRIoxEl3JrY1kFikpOqmCYc9Xb3Gq3IXM336fhgEkSjtnw+Ldja
xm/f1QIDAQABo34wfDAJBgNVHRMEAjAAMA4GA1UdDwEB/wQEAwIFoDAdBgNVHSUE
FjAUBggrBgEFBQcDAQYIKwYBBQUHAwIwHQYDVR0OBBYEFDF6xR827dOppLg+EbPi
MddIPCarMCEGA1UdEQQaMBiCC01yQm9pbmNIb3N0gglsb2NhbGhvc3QwDQYJKoZI
hvcNAQELBQADggIBAFxkod4sVhn2gxY/VGay/ZcKX6RBLds8fiyraI7HHQTq54tq
SMjmx8hvjQr++o7XpInTNH7dDSQZ3blPe84O3PbAecPRHuY1w6+KwlRTBvoRryil
86F1NQtNHljyfA+JJOjwdkKxEcy3V/fiG/vpOrjWZwRku4cK9+aLAnMz7/2eKfFZ
DXaHW4PzZzmTXGyxV2zVFW5IESGKmyikX81mKd7bsao9Z9HxfkTqCE5AxcsCahKt
WrmRwot69eA5AHu2xBNgGhrd16z/KAW85HlBYh1UpHnWDbc8hLv359itv+UjmxQV
vy3dZkGI4iQdx3AqoFSpMRq2rOjT+0z5HiHNxs4q5ywSeQDLwM/k/RFfArUuJB5L
AO2c/Nb6ePGUJm1YKkWHq4Tj6FDuIL6q41+lEWxS39COjx24eL46paeG4HvkYMqA
cy1EOIfwVW2e6lD4KYRUvfg3qhyAWwrfQh81h/69VlbQ8VD9QqfA4N9wVrlzfVNd
R068LRk1sL4dOtmlTccwONzUOtUlJUdN5iRWuxAbuG+lazLEeFgF2Ji5nObZWDMc
ZOKxtuEUtjwWqqF31UcJOVn5KFpWW8hGK8NyQ+KC+fj2JrIE+V17H0nV+VBytwQr
n0sX9RHM3Bq1+TiTafXRI990I+6ujd2fWZeRvlTGNVSwpm6Ofxv2rBCtX3kQ
-----END CERTIFICATE-----
